; Function Attrs: mustprogress uwtable
define dso_local void @_ZNK4Json5Value10getCommentB5cxx11ENS_16CommentPlacementE(ptr dead_on_unwind noalias writable sret(%"class.std::__cxx11::basic_string") align 8 %0, ptr nocapture noundef nonnull readonly align 8 dereferenceable(40) %1, i32 noundef %2) local_unnamed_addr #10 align 2 {
  %4 = getelementptr inbounds i8, ptr %1, i64 16
  %5 = load ptr, ptr %4, align 8, !noalias !31
  %.not.i = icmp eq ptr %5, null
  br i1 %.not.i, label %6, label %7

6:                                                ; preds = %3
  tail call void @_ZNSt7__cxx1112basic_stringIcSt11char_traitsIcESaIcEEC1Ev(ptr noundef nonnull align 8 dereferenceable(32) %0) #35
  br label %_ZNK4Json5Value8Comments3getB5cxx11ENS_16CommentPlacementE.exit

7:                                                ; preds = %3
  %8 = zext i32 %2 to i64
  %9 = getelementptr inbounds [3 x %"class.std::__cxx11::basic_string"], ptr %5, i64 0, i64 %8
  tail call void @_ZNSt7__cxx1112basic_stringIcSt11char_traitsIcESaIcEEC1ERKS4_(ptr noundef nonnull align 8 dereferenceable(32) %0, ptr noundef nonnull align 8 dereferenceable(32) %9)
  br label %_ZNK4Json5Value8Comments3getB5cxx11ENS_16CommentPlacementE.exit

_ZNK4Json5Value8Comments3getB5cxx11ENS_16CommentPlacementE.exit: ; preds = %6, %7
  ret void
}